; Function Attrs: mustprogress uwtable
define void @_ZN6LibRaw29phase_one_allocate_tempbufferEv(ptr noundef nonnull align 8 dereferenceable(767680) %0) local_unnamed_addr #0 align 2 {
  %2 = getelementptr inbounds nuw i8, ptr %0, i64 5500
  %3 = load i32, ptr %2, align 4, !tbaa !6
  %4 = and i32 %3, 8388608
  %.not = icmp eq i32 %4, 0
  br i1 %.not, label %9, label %5

5:                                                ; preds = %1
  %6 = getelementptr inbounds nuw i8, ptr %0, i64 193640
  %7 = getelementptr inbounds nuw i8, ptr %0, i64 193648
  %8 = load ptr, ptr %7, align 8, !tbaa !71
  store ptr %8, ptr %6, align 8, !tbaa !72
  br label %9

9:                                                ; preds = %5, %1
  %10 = getelementptr inbounds nuw i8, ptr %0, i64 16
  %11 = getelementptr inbounds nuw i8, ptr %0, i64 32
  %12 = load i32, ptr %11, align 8, !tbaa !73
  %13 = load i16, ptr %10, align 8, !tbaa !74
  %14 = zext i16 %13 to i32
  %15 = mul i32 %12, %14
  %16 = zext i32 %15 to i64
  %17 = tail call noundef ptr @_ZN6LibRaw6mallocEm(ptr noundef nonnull align 8 dereferenceable(767680) %0, i64 noundef %16)
  %18 = getelementptr inbounds nuw i8, ptr %0, i64 193648
  store ptr %17, ptr %18, align 8, !tbaa !71
  ret void
}